; Function Attrs: nounwind uwtable
define i32 @IDAGetAdjY(ptr noundef %0, double noundef %1, ptr noundef %2, ptr noundef %3) local_unnamed_addr #0 {
  %5 = icmp eq ptr %0, null
  br i1 %5, label %6, label %7

6:                                                ; preds = %4
  tail call void (ptr, i32, ptr, ptr, ptr, ...) @IDAProcessError(ptr noundef null, i32 noundef -20, ptr noundef nonnull @.str, ptr noundef nonnull @.str.36, ptr noundef nonnull @.str.2) #9
  br label %13

7:                                                ; preds = %4
  %8 = getelementptr inbounds nuw i8, ptr %0, i64 1816
  %9 = load ptr, ptr %8, align 8, !tbaa !3
  %10 = getelementptr inbounds nuw i8, ptr %9, i64 128
  %11 = load ptr, ptr %10, align 8, !tbaa !33
  %12 = tail call i32 %11(ptr noundef nonnull %0, double noundef %1, ptr noundef %2, ptr noundef %3, ptr noundef null, ptr noundef null) #9
  br label %13

13:                                               ; preds = %7, %6
  %.0 = phi i32 [ -20, %6 ], [ %12, %7 ]
  ret i32 %.0
}